target datalayout = "e-m:e-p270:32:32-p271:32:32-p272:64:64-i64:64-i128:128-f80:128-n8:16:32:64-S128"
target triple = "x86_64-unknown-linux-gnu"

%"class.QuantLib::IntervalPrice" = type { double, double, double, double }

; Function Attrs: mustprogress nounwind uwtable
define void @_ZN8QuantLib13IntervalPriceC2Edddd(ptr noundef nonnull align 8 dereferenceable(32) %this, double noundef %open, double noundef %close, double noundef %high, double noundef %low) unnamed_addr #3 align 2 {
entry:
  %this.addr = alloca ptr, align 8
  %open.addr = alloca double, align 8
  %close.addr = alloca double, align 8
  %high.addr = alloca double, align 8
  %low.addr = alloca double, align 8
  store ptr %this, ptr %this.addr, align 8, !tbaa !7
  store double %open, ptr %open.addr, align 8, !tbaa !3
  store double %close, ptr %close.addr, align 8, !tbaa !3
  store double %high, ptr %high.addr, align 8, !tbaa !3
  store double %low, ptr %low.addr, align 8, !tbaa !3
  %this1 = load ptr, ptr %this.addr, align 8
  %open_ = getelementptr inbounds nuw %"class.QuantLib::IntervalPrice", ptr %this1, i32 0, i32 0
  %0 = load double, ptr %open.addr, align 8, !tbaa !3
  store double %0, ptr %open_, align 8, !tbaa !11
  %close_ = getelementptr inbounds nuw %"class.QuantLib::IntervalPrice", ptr %this1, i32 0, i32 1
  %1 = load double, ptr %close.addr, align 8, !tbaa !3
  store double %1, ptr %close_, align 8, !tbaa !13
  %high_ = getelementptr inbounds nuw %"class.QuantLib::IntervalPrice", ptr %this1, i32 0, i32 2
  %2 = load double, ptr %high.addr, align 8, !tbaa !3
  store double %2, ptr %high_, align 8, !tbaa !14
  %low_ = getelementptr inbounds nuw %"class.QuantLib::IntervalPrice", ptr %this1, i32 0, i32 3
  %3 = load double, ptr %low.addr, align 8, !tbaa !3
  store double %3, ptr %low_, align 8, !tbaa !15
  ret void
}